target datalayout = "e-m:e-p270:32:32-p271:32:32-p272:64:64-i64:64-i128:128-f80:128-n8:16:32:64-S128"
target triple = "x86_64-pc-linux-gnu"

%"class.tbb::detail::d1::task_scheduler_handle" = type { ptr }
%"class.tbb::detail::d1::global_control" = type <{ i64, i64, i32, [4 x i8] }>

@__func__._ZN3tbb6detail2d114global_controlC2ENS2_9parameterEm = private unnamed_addr constant [15 x i8] c"global_control\00", align 1
@.str.15 = private unnamed_addr constant [11 x i8] c"my_value>0\00", align 1
@.str.16 = private unnamed_addr constant [37 x i8] c"max_allowed_parallelism cannot be 0.\00", align 1

; Function Attrs: mustprogress nounwind sspstrong uwtable
define linkonce_odr void @_ZN3tbb6detail2d023suppress_unused_warningIJRlEEEvDpOT_(ptr noundef nonnull align 8 dereferenceable(8) %0) #3 comdat {
  %2 = alloca ptr, align 8
  store ptr %0, ptr %2, align 8, !tbaa !274
  ret void
}

; Function Attrs: mustprogress sspstrong uwtable
define linkonce_odr void @_ZN3tbb6detail2d114global_controlC2ENS2_9parameterEm(ptr noundef nonnull align 8 dereferenceable(20) %0, i32 noundef %1, i64 noundef %2) unnamed_addr #1 comdat align 2 {
  %4 = alloca ptr, align 8
  %5 = alloca i32, align 4
  %6 = alloca i64, align 8
  store ptr %0, ptr %4, align 8, !tbaa !134
  store i32 %1, ptr %5, align 4, !tbaa !135
  store i64 %2, ptr %6, align 8, !tbaa !94
  %7 = load ptr, ptr %4, align 8
  %8 = getelementptr inbounds nuw %"class.tbb::detail::d1::global_control", ptr %7, i32 0, i32 0
  %9 = load i64, ptr %6, align 8, !tbaa !94
  store i64 %9, ptr %8, align 8, !tbaa !137
  %10 = getelementptr inbounds nuw %"class.tbb::detail::d1::global_control", ptr %7, i32 0, i32 1
  store i64 0, ptr %10, align 8, !tbaa !139
  %11 = getelementptr inbounds nuw %"class.tbb::detail::d1::global_control", ptr %7, i32 0, i32 2
  %12 = load i32, ptr %5, align 4, !tbaa !135
  store i32 %12, ptr %11, align 8, !tbaa !140
  %13 = getelementptr inbounds nuw %"class.tbb::detail::d1::global_control", ptr %7, i32 0, i32 1
  call void @_ZN3tbb6detail2d023suppress_unused_warningIJRlEEEvDpOT_(ptr noundef nonnull align 8 dereferenceable(8) %13)
  %14 = getelementptr inbounds nuw %"class.tbb::detail::d1::global_control", ptr %7, i32 0, i32 2
  %15 = load i32, ptr %14, align 8, !tbaa !140
  %16 = icmp eq i32 %15, 0
  br i1 %16, label %17, label %24

17:                                               ; preds = %3
  %18 = getelementptr inbounds nuw %"class.tbb::detail::d1::global_control", ptr %7, i32 0, i32 0
  %19 = load i64, ptr %18, align 8, !tbaa !137
  %20 = icmp ugt i64 %19, 0
  br i1 %20, label %21, label %22

21:                                               ; preds = %17
  br label %23

22:                                               ; preds = %17
  call void @_ZN3tbb6detail2r117assertion_failureEPKciS3_S3_(ptr noundef @__func__._ZN3tbb6detail2d114global_controlC2ENS2_9parameterEm, i32 noundef 76, ptr noundef @.str.15, ptr noundef @.str.16)
  br label %23

23:                                               ; preds = %22, %21
  br label %24

24:                                               ; preds = %23, %3
  call void @_ZN3tbb6detail2r16createERNS0_2d114global_controlE(ptr noundef nonnull align 8 dereferenceable(20) %7)
  ret void
}

; Function Attrs: mustprogress sspstrong uwtable
define void @_ZN3tbb6detail2r13getERNS0_2d121task_scheduler_handleE(ptr noundef nonnull align 8 dereferenceable(8) %0) #1 {
  %2 = alloca ptr, align 8
  store ptr %0, ptr %2, align 8, !tbaa !129
  %3 = call noundef ptr @_ZN3tbb6detail2r115allocate_memoryEm(i64 noundef 24)
  call void @_ZN3tbb6detail2d114global_controlC2ENS2_9parameterEm(ptr noundef nonnull align 8 dereferenceable(20) %3, i32 noundef 3, i64 noundef 1)
  %4 = load ptr, ptr %2, align 8, !tbaa !129
  %5 = getelementptr inbounds nuw %"class.tbb::detail::d1::task_scheduler_handle", ptr %4, i32 0, i32 0
  store ptr %3, ptr %5, align 8, !tbaa !131
  ret void
}