; Function Attrs: mustprogress sspstrong uwtable
define void @_ZN3tbb6detail2r13getERNS0_2d121task_scheduler_handleE(ptr noundef nonnull writeonly align 8 captures(none) dereferenceable(8) initializes((0, 8)) %0) local_unnamed_addr #1 {
  %2 = tail call noundef ptr @_ZN3tbb6detail2r115allocate_memoryEm(i64 noundef 24)
  store i64 1, ptr %2, align 8, !tbaa !127
  %3 = getelementptr inbounds nuw i8, ptr %2, i64 8
  store i64 0, ptr %3, align 8, !tbaa !130
  %4 = getelementptr inbounds nuw i8, ptr %2, i64 16
  store i32 3, ptr %4, align 8, !tbaa !131
  tail call void @_ZN3tbb6detail2r16createERNS0_2d114global_controlE(ptr noundef nonnull align 8 dereferenceable(20) %2)
  store ptr %2, ptr %0, align 8, !tbaa !132
  ret void
}